ccollections
defaultdict
p1
(c__builtin__
str
p2
tRp3
S'SUNCSNN1111110111111111111111111111111111011111111011111111111111110111111111011111111111111111111111111111'
p4
S'n'
sS'SUNCNNN1111111111111111111111111110111111011111111011111111111111111111111111110111111111111111111111111111'
p5
S'e'
sS'SUSBNNN1011111111011111111101111111111111011111111011111111111111111111111111111111111111111111111111111111'
p6
S'a'
sS'SUNSSNN1111111111011111111101111111110111111111011111111101111111110111111111011111111101111111110111111111'
p7
S'v'
sS'SUNCNNN1111111111111111111111111111111111111111111111111111111110111111111111111110111111111111111111111111'
p8
S'x'
sS'SUNSSSS1111111110111111111111111111111111111111111111111111111111111111111111111111111111111111110111111111'
p9
S'w'
sS'SUSBNNS1011111111011111111101111111111111011111111011111111111111111111111111111111111111111111111111111111'
p10
S'i'
sS'SUNCNNN1111011111111111111111111111111111111111011111111101111101111111101111111111111111111111111111111111'
p11
S't'
sS'SUSCNNS1111111111111111111111111111111111011111111011111111111111111111111111111111111111111111111111111111'
p12
S'y'
sS'SUNCSNS1111111111111111111111111111111111011111111011111111111111111111111111111111111111111111111111111111'
p13
S'c'
sS'SUSSNNN1111110111111111111111111111111111011111111011111111111111110111111111111111111111111111111111111111'
p14
S'n'
sS'SDSSSNN1111111111111111111111111111111111111111111111111111111111111111111111111111111111111111111111111111'
p15
S'q'
sS'SUNCNNN1011111111011111111100111111111111011111111011111111111111111111111111111111111111111111111111111111'
p16
S'a'
sS'SUSSSSS1111111110111111111111111111111111111111111111111111111111111111111111111111111111111111110111111111'
p17
S'w'
sS'SUNBNNN1111111111011111111111111111111111011111111011111111111111111111111111111111111111111111111111111111'
p18
S's'
sS'SDSSNNN1111111111111111111111111111111111111111111111111111111111111111111111111111111111111111111111111111'
p19
S'q'
sS'SUSCNNN1111011111111111111111111111111111111111011111111101111111111111111111111111111111111111111111111111'
p20
S't'
sS'SUNCNNN1111111101111111111111111111111111011111111011111111111110111111111111111110111101111111111111111111'
p21
S'm'
sS'SUNBNNN1111111111111111111111111111111111011111111011111111111111111111111111111111111111111111111111111111'
p22
S's'
sS'SUNCNNN1111111111111111111111111111111111011111111011111111111111111111111111111111111111111111111111111111'
p23
S'c'
sS'SUNSSNN1111111011111111111111111111111111111111111111111111111111111111111111011111111111111111111111111111'
p24
S'v'
sS'SSSSNNN1111011111111111111111111111111111111111011111111111111101111111101111111111111111111111111111111111'
p25
S'g'
sS'SUSBNNN1011111111011111111101111111111111011111111011111111101110111111111111111110011111111111111111111111'
p26
S'a'
sS'SUSCNNS1111011111111111111111111111111111111111011111111101111111111111111111111111111111111111111111111111'
p27
S't'
sS'SUNCSSS1101111111111111111101111111111111111111111111111111111111111111111111111111111111111111111111111111'
p28
S'f'
sS'SUSBNNS1111111111011111111111111111111111011111111011111111111111111111111111111111111111111111111111111111'
p29
S'i'
sS'SUNSSNN1111111111011111111101111111110111011111011011111101111111110111111111011111111101111111110111111111'
p30
S'u'
sS'SSNSSNN1111110111111111111111111111111111011111111011111111111111110111111111011111111111111111111111111111'
p31
S'h'
sS'SUSSNNN1111111111111111111111111111111111111111111111111111111111111111111111111111111111111111111111111111'
p32
S'l'
sS'SUNCNNN1111110111111111111111111111111111011111111011111111111111110111111111011111111111111111111111111111'
p33
S'n'
sS'SUSBNNS1111111111111111111111111111111111011111111011111111111111111111111111111111111111111111111111111111'
p34
S'y'
sS'SSSSSSN1111110111111111111111111111111111011111111011111111111111110111111111111111111111111111111111111111'
p35
S'h'
sS'SUSSSSS1111111111111111111111111111111111111111111111111111111111111111111111111111111111111111111111111111'
p36
S'w'
sS'SSSSNNN1111011111111111111111111111111111111111011111111111111111111111111111111111111111111111111111111111'
p37
S'g'
sS'SUSCNNS1011111111011111111101111111111111011111111011111111111111111111111111111111111111111111111111111111'
p38
S'i'
sS'SUNCNNN1111101011111111111111111111111111011111111011111101111110111111111111011110111111111111111111111111'
p39
S'o'
sS'SUNCNNN1111111111111111111111111111111111111111111111111111111101111111101111111111111111111111111111111111'
p40
S'x'
sS'SUNBNNS1011111111011111111100111111111111011111111011111111111111111111111111111111111111111111111111111111'
p41
S'i'
sS'SUNBNNN1111111011111111111111111111111111011111111011111111111111111111111111011111111111111111111111111111'
p42
S'e'
sS'SSNSSNN1111110111111111111111111111111111011111111011111111111111110111111111111111111111111111111111111111'
p43
S'h'
sS'SUSBNNN1111111111011111111111111111111111011111111011111111111111111111111111111111111111111111111111111111'
p44
S'a'
sS'SUNCNNS1011111111011111111100111111111111011111111011111111111111111111111111111111111111111111111111111111'
p45
S'i'
sS'SSSSSNN1111011111111111111111111111111111111111011111111111111111111111111111111111111111111111111111111111'
p46
S'g'
sS'SUSBNNN1011111111011111111100111111111111011111111011111111111111111111111111111111111111111111111111111111'
p47
S'a'
sS'SUNCNNS1011111111011111111111111111111111011111111011111111111111111111111111111111111111111111111111111111'
p48
S'i'
sS'SUNBNNN1111101011111111111111111111111111111111111111111111111111111111111111011110111111111111111111111111'
p49
S'r'
sS'SUSBNNN1011111111011111111101111111111111011111111011111111111110111111111111111110111111111111111111111111'
p50
S'a'
sS'SUNSSNN1111110111111111111111111111111111011111111011111111111111110111111111111111111111111111111111111111'
p51
S'u'
sS'SUNCNNS1111101011111111111111111111111111011111111011111101111110111111111111011110111111111111111111111111'
p52
S'o'
sS'SUNBNNS1011111111011111111111111111111111011111111011111111111111111111111111111111111111111111111111111111'
p53
S'i'
sS'SUSSSNN1111011111111111111111111111111111111111011111111111111111111111111111111111111111111111111111111111'
p54
S'k'
sS'SUSSSNN1111110111111111111111111111111111011111111011111111111111110111111111111111111111111111111111111111'
p55
S'n'
sS'SUSBNNS1011111111011111111111111111111111011111111011111111111111111111111111111111111111111111111111111111'
p56
S'i'
sS'SUNCNNN1111111101111111111111111111111111011111111011111111111111111111111111111111111101111111111111111111'
p57
S'm'
sS'SUSCNNS1111111111011111111111111111111111011111111011111111111111111111111111111111111111111111111111111111'
p58
S'i'
sS'SDSSSNN1111011111111111111111111111111111111111011111111111111111111111111111111111111111111111111111111111'
p59
S'p'
sS'SUSCNNS1111111111011111111111111111111111011111111011111111111110111111111111111110111111111111111111111111'
p60
S'i'
sS'SUNCNNS1111011111111111111111111111111111111111011111111101111111111111111111111111111111111111111111111111'
p61
S't'
sS'SUNCNNN1111011111111111111111111111111111111111011111111101111111111111111111111111111111111111111111111111'
p62
S't'
sS'SUNCNNN1111011111111111111111111111111101111111011011111101111111111111111111111111111111111111111111111111'
p63
S't'
sS'SUNSNNN1111111011111111111111111111111111111111111111111111111111111111111111011111111111111111111111111111'
p64
S'd'
sS'SUSBNNN1111111111011111111111111111111101011111111011111111101110111111111111111110011111111111111111111111'
p65
S'a'
sS'SUNBSNN1111111011111111111111111111111111111111111111111111111111111111111111011111111111111111111111111111'
p66
S'r'
sS'SUNCNNS1111111101111111111111111111111111011111111011111111111110111111111111111110111101111111110111111111'
p67
S'm'
sS'SUNCNNS1111111101111111111111111111111111011111111011111111111111111111111111111111111101111110110111111111'
p68
S'm'
sS'SUSCNNS1111110111111111111111111111111111011111111011111111111111110111111111011111111111111111111111111111'
p69
S'n'
sS'SUSBNNN1011111111011111111111111111111111011111111011111111111111111111111111111111111111111111111111111111'
p70
S'a'
sS'SNSCNNS1011111111011111111101111111111111011111111011111111111111111111111111111111111111111111111111111111'
p71
S''
sS'SUSBNNN1111111111011111111111111111111111011111111011111111101110111111111111111110011111111111111111111111'
p72
S'a'
sS'SUNCNNS1011111111011111111101111111111111011111111011111111111111111111111111111111111111111111111111111111'
p73
S'i'
sS'SUSCNNS1111111011111111111111111111111111011111111011111111111111111111111111011111111111111111111111111111'
p74
S'o'
sS'SUSCNNN1011111111011111111100111111111111011111111011111111111111111111111111111111111111111111111111111111'
p75
S'a'
sS'SDSSNNN1111111111111111111111111111111111011111111011111111111111111111111111111111111111111111111111111111'
p76
S'q'
sS'SUSSSNN1111110111111111111111111111111111011111111011111111111111110111111111011111111111111111111111111111'
p77
S'n'
sS'SUNSSSS1111111111111111111111111111111111011111111011111111111111111111111111111111111111111111111111111111'
p78
S'b'
sS'SUSCNNS1111111110111111111111111111111111011111111011111111111110111111111111111110111111111111110111111111'
p79
S'o'
sS'SUNCNNS1111111111111111111111111111111111011111111011111111111111111111111111111111111111111111111111111111'
p80
S'c'
sS'SUNCSNS1101111111111111111101111111111111111111111111111111111111111111111111111111111111111111111111111111'
p81
S'f'
sS'SUNSSNN1111110111111111111111111111111111011111111011111111111111110111111111011111111111111111111111111111'
p82
S'n'
sS'SUSCNNS1011111111011111111111111111111111011111111011111111111111111111111111111111111111111111111111111111'
p83
S'i'
sS'SUSBNNS1111111111011111111101111111111111011111111011111111111111111111111111111111111111111111111111111111'
p84
S'i'
sS'SUNCNNN1111110111111111111111111111111111011111111011111111111111110111111111111111111111111111111111111111'
p85
S'n'
sS'SUSCNNN1011111111011111111101111111111111011111111011111111101110111111111111111110111111111111111111111111'
p86
S'a'
sS'SUNBNNS1011111111011111111100111111111101011111111011111111111111111111111111111111111111111111111111111111'
p87
S'i'
sS'SUNSSNN1111111111111111111111111111111111011111111011111111111111111111111111111111111111111111111111111111'
p88
S'u'
sS'SUSCNNN1111110111111111111111111111111111011111111011111111111111110111111111011111111111111111111111111111'
p89
S'n'
sS'SUSBNNN1011111111011111111100111111111111011111111011111111101110111111111111111110011111111111111111111111'
p90
S'a'
sS'SUNSSSS1111111111111111111111111111111111111111111111111111111111111111111111111111111111111111111111111111'
p91
S'b'
sS'SUNBNNN1011111111011111111100111111111111011111111011111111101110111111111111111110011111111111111111111111'
p92
S'a'
sS'SUSCNNN1111111111011111111111111111111111011111111011111111111110111111111111111110111111111111111111111111'
p93
S'a'
sS'SUNCNNN1111011111111111111111111111111111111111011111111111111111111111111111111111111111111111111111111111'
p94
S't'
sS'SUSBNNS1011111111011111111100111111111111011111111011111111111111111111111111111111111111111111111111111111'
p95
S'i'
sS'SUNSSNS1111111011011111101101111110110111011011011011101101111110110111111011011111111101111110110111111011'
p96
S'u'
sS'SUSCNNN1011111111011111111101111111111111011111111011111111111110111111111111111110111111111111111111111111'
p97
S'a'
sS'SUSCNNN1111110111111111111111111111111111011111111011111111111111110111111111111111111111111111111111111111'
p98
S'n'
sS'SUNBNNN1111111110111111111111111111111111011111111011111111111111111111111111111111111111111111110111111111'
p99
S'e'
sS'SUNSNNN1111101011111111111111111111111111111111111111111101111110111111111111011110111111111111111111111111'
p100
S'd'
sS'SUNSSNS1111111011111111111111111111111111111111111111111111111111111111111111011111111111111111111111111111'
p101
S'v'
sS'SUNCNNS1111111101111111111111111111111111011111111011111111111111111111111111111111111101111111111111111111'
p102
S'm'
sS'SUNCNNS1111111111011111111111111111111111011111111011111111111111111111111111111111111111111111111111111111'
p103
S'i'
sS'SUNBNNN1111111111011111111101111111110111011111011011111101111111110111111111011111111101111111110111111111'
p104
S's'
s.