ccollections
defaultdict
p1
(c__builtin__
str
p2
tRp3
S'SUSBNNN1011111111011111111111111111111111011111111011111111111111111111111111111111111111111111111111111111'
p4
S'a'
sS'SUSSSSS1111111110111111111111111111111111111111111111111111111111111111111111111111111111111111110111111111'
p5
S'w'
sS'SUNCNNN1111111111111111111111111111111111011111111011111111111111111111111111111111111111111111111111111111'
p6
S'c'
sS'SUNSSNN1111111011111111111111111111111111111111111111111111111111111111111111011111111111111111111111111111'
p7
S'v'
sS'SUNCSSS1111111111111111111111111111111111111111111111111111111111111111111111111111111111111111111111111111'
p8
S''
sS'SNSSNNN1111111111111111111111111111111111111111111111111111111111111111111111111111111111111111111111111111'
p9
S''
sS'SSSSNNN1111011111111111111111111111111111111111011111111111111101111111101111111111111111111111111111111111'
p10
S'g'
sS'SUNCNNN1111111111111111111111111111111111111111111111111111111101111111101111111111111111111111111111111111'
p11
S'x'
sS'SUNSNNN1111111011011111101101111110110111111011011111101101111110110111111011011111111101111110110111111011'
p12
S''
sS'SDSSNNN1111111111111111111111111111111111011111111011111111111111111111111111111111111111111111111111111111'
p13
S'q'
sS'SUNCNNN1110011111111111111111101111111111111111011011111111111101111111101111111111111111111111111111111111'
p14
S''
sS'SUNCNNN1111111111111111111111111110111111011111111011111111111111111111111111110111111111111111111111111111'
p15
S'e'
sS'SNSSSSS1111111111111111111111111111111111111111111111111111111111111111111111111111111111111111111111111111'
p16
S''
sS'SUSCNNN1111111101111111111111111111111111011111111011111111111111111111111111111111111101111110111111111111'
p17
S''
sS'SUNSNNN1111101011111111111111111111111111111111111111111101111110111111111111011110111111111111111111111111'
p18
S'd'
sS'SUNCSSS1101111111111111111101111111111111111111111111111111111111111111111111111111111111111111111111111111'
p19
S'f'
sS'SUNBNNN1111111111111111111111111111111111011111111011111101111110011111111111111110110111111010111111111111'
p20
S''
sS'SNNCNNS1111111111111111111111111111111111111111111111111111111111111111111111111111111111111111111111111111'
p21
S'x'
sS'SUNBNNN1111111110111111111111111111111111011111111011111111111111111111111111111111111111111111110111111111'
p22
S'e'
sS'SUSBNNN1111111111111111111111111111111111011111111011111111111111111111111111111111111111111111111111111111'
p23
S''
sS'SUNSSSS1111111111111111111111111111111111011111111011111111111111111111111111111111111111111111111111111111'
p24
S'b'
sS'SUSSNNN1111111011111111111111111111111111111111111111111111111111111111111111011111111111111111111111111111'
p25
S''
sS'SUSCNNS1111111110111111111111111111111111011111111011111111111110111111111111111110111111111111110111111111'
p26
S'o'
sS'SUSSNNN1111111111111111111111111111111111111111111111111111111111111111111111111111111111111111111111111111'
p27
S'l'
sS'SUNSSNS1111111110111111111111111111111111111111111111111111111111111111111111111111111111111111110111111111'
p28
S''
sS'SUNSSNN1111110111111111111111111111111111011111111011111111111111110111111111111111111111111111111111111111'
p29
S'u'
sS'SUNCNNN1111111111111111111111111111111111111111111111111111111110111111111111111110111111111111111111111111'
p30
S'x'
sS'SUNBSNS1111111011111111111111111111111111111111111111111111111111111111111111011111111111111111111111111111'
p31
S''
sS'SUSBNNN1111111111111111111111111111111111011111111011111111111110111111111111111110111111111111111111111111'
p32
S''
sS'SNSSSSS1111111111111111111111111111111111111111111111111111111110111111111111111110111111111111111111111111'
p33
S''
sS'SUNCNNS1111101011111111111111111111111111011111111011111101111110111111111111011110111111111111111111111111'
p34
S'o'
sS'SUNCNNS1111101011011110101101111010110111001011011010101101111110110111101011011110111101111010110111101011'
p35
S''
sS'SUSBNNS1111111111111111111111111111111111011111111011111111111111111111111111111111111111111111111111111111'
p36
S'y'
sS'SDSCNNN1111111111111111111111111111111111111111111111111111111111111111111111111111111111111111111111111111'
p37
S''
sS'SUSBNNS1011111111011111111101111111111111011111111011111111111111111111111111111111111111111111111111111111'
p38
S''
sS'SUNBNNS1011111111011111111111111111111111011111111011111111111111111111111111111111111111111111111111111111'
p39
S''
sS'SUSCNNS1111111111111111111111111111111111011111111011111111111111111111111111111111111111111111111111111111'
p40
S'i'
sS'SUNSSSS1111111111111111111111111111111111111111111111111111111111111111111111111111111111111111111111111111'
p41
S''
sS'SUSSSSS1111111111111111111111111111111111111111111111111111111111111111111111111111111111111111111111111111'
p42
S'w'
sS'SUNCSNS1101111111111111111101111111111111111111111111111111111111111111111111111111111111111111111111111111'
p43
S'f'
sS'SUSSSNN1111011111111111111111111111111111111111011111111111111111111111111111111111111111111111111111111111'
p44
S'k'
sS'SUNCSNS1111111111111111111111111111111111011111111011111111111111111111111111111111111111111111111111111111'
p45
S'c'
sS'SSSSNNN1111011111111111111111111111111111111111011111111111111111111111111111111111111111111111111111111111'
p46
S'g'
sS'SUNCNNN1111101011011110101101111010110111001011011010101101111110110111101011011110111101111010110111101011'
p47
S''
sS'SUSSSNN1111110111111111111111111111111111011111111011111111111111110111111111111111111111111111111111111111'
p48
S'n'
sS'SUSBNNS1011111111011111111111111111111111011111111011111111111111111111111111111111111111111111111111111111'
p49
S'i'
sS'SUNCNNN1111111101111111111111111111111111011111111011111111111111111111111111111111111101111111111111111111'
p50
S'm'
sS'SUNSSNN1111111111111111111111111111111111011111111011111111111111111111111111111111111111111111111111111111'
p51
S'u'
sS'SUNBNNN1111111111111111111111111111111111111111111111111111111111111111111111111111111111111111111111111111'
p52
S''
sS'SDSSSNN1111011111111111111111111111111111111111011111111111111111111111111111111111111111111111111111111111'
p53
S'p'
sS'SUSBSNN1011111111011111111111111111111111011111111011111111111111111111111111111111111111111111111111111111'
p54
S''
sS'SNSSSNS1111111011111111111111111111111111111111111111111111111111111111111111011111111111111111111111111111'
p55
S''
sS'SNNSNNN1111111111111111111111111111111111111111111111111111111111111111111111111111111111111111111111111111'
p56
S''
sS'SDSSSNN1111111111111111111111111111111111111111111111111111111111111111111111111111111111111111111111111111'
p57
S'q'
sS'SUNCNNN1111011111111111111111111111111111111111011111111111111111111111111111111111111111111111111111111111'
p58
S't'
sS'SUNSNNN1111111011111111111111111111111111111111111111111111111111111111111111011111111111111111111111111111'
p59
S'd'
sS'SUNCNNN1111101011111111111111111111111111011111111011111101111110111111111111011110111111111111111111111111'
p60
S'o'
sS'SUNBNNN1111111011111111111111111111111111011111111011111111111111111111111111011111111111111111111111111111'
p61
S'e'
sS'SUNBNNN1111111111111111111111111111111111011111111011111111111111111111111111111111111111111111111111111111'
p62
S's'
sS'SUSBNNN1111111111111111111111111111111111111111111111111111111111111111111111111111111111111111111111111111'
p63
S''
sS'SUNSSSS1111111110111111111111111111111111111111111111111111111111111111111111111111111111111111110111111111'
p64
S'w'
sS'SUSCNNN1111110111111111111111111111111111011111111011111111111111110111111111111111111111111111111111111111'
p65
S'n'
sS'SNSSSNN1111011111111111111111111111111111111111011111111111111111111111111111111111111111111111111111111111'
p66
S''
sS'SDSSNNN1111111111111111111111111111111111111111111111111111111111111111111111111111111111111111111111111111'
p67
S'q'
sS'SUNBSNN1111111011111111111111111111111111111111111111111111111111111111111111011111111111111111111111111111'
p68
S'r'
sS'SUSSSNS1111111111111111111111111111111111111111111111111111111111111111111111111111111111111111111111111111'
p69
S''
sS'SUNCNNN1111111101111111111111111111111111011111111011111111111110111111111111111110111101111111111111111111'
p70
S'm'
sS'SUSCNNS1011111111011111111111111111111111011111111011111111111111111111111111111111111111111111111111111111'
p71
S'i'
sS'SUNCNNS1111111101111111111111111111111111011111111011111111111111111111111111111111111101111111111111111111'
p72
S'm'
sS'SSNSSNN1111110111111111111111111111111111011111111011111111111111110111111111111111111111111111111111111111'
p73
S'h'
sS'SUNCNNN1111110111111111111111111111111111011111111011111111111111110111111111111111111111111111111111111111'
p74
S'n'
sS'SUNSSNS1111111011111111111111111111111111111111111111111111111111111111111111011111111111111111111111111111'
p75
S'v'
s.