ccollections
defaultdict
p1
(c__builtin__
str
p2
tRp3
S'SUNBNNN1011111111011111111100111111111101011111111011111111111111111111111111111111111111111111111111111111'
p4
S'a'
sS'SUNCSNN1111110111111111111111111111111111011111111011111111111111110111111111011111111111111111111111111111'
p5
S'n'
sS'SUNBNNN1011111111011111111111111111111111011111111011111111111111111111111111111111111111111111111111111111'
p6
S'a'
sS'SUSBNNN1011111111011111111101111111111111011111111011111111111111111111111111111111111111111111111111111111'
p7
S'a'
sS'SUNSSNN1111111111011111111101111111110111111111011111111101111111110111111111011111111101111111110111111111'
p8
S'v'
sS'SUNBNNN1001111111011111111100111111110101011111111011111111111111111111111111111111111111111111111111111111'
p9
S'a'
sS'SUNCNNN1111111111111111111111111111111111111111111111111111111110111111111111111110111111111111111111111111'
p10
S'x'
sS'SUNSSSS1111111110111111111111111111111111111111111111111111111111111111111111111111111111111111110111111111'
p11
S'w'
sS'SUNBNNN1001111111011111111100111111110101011111111011111111100111111111111111111111111111111111111111111111'
p12
S'a'
sS'SUSBNNS1011111111011111111101111111111111011111111011111111111111111111111111111111111111111111111111111111'
p13
S'i'
sS'SUNCNNN1111011111111111111111111111111111111111011111111101111101111111101111111111111111111111111111111111'
p14
S't'
sS'SUSCNNS1111111111111111111111111111111111011111111011111111111111111111111111111111111111111111111111111111'
p15
S'y'
sS'SUNCNNN1111101111111111111111111111111111011111111011111101111111111111111111111111111111111111111111111111'
p16
S'o'
sS'SUNCSNS1111111111111111111111111111111111011111111011111111111111111111111111111111111111111111111111111111'
p17
S'c'
sS'SUSSSSS1111111110111111111111111111111111111111111111111111111111111111111111111111111111111111110111111111'
p18
S'w'
sS'SUNCNNN1111111111011111111111111111111111011111111011111111111111111111111111111111111111111111111111111111'
p19
S'o'
sS'SUSSNNN1111110111111111111111111111111111011111111011111111111111110111111111111111111111111111111111111111'
p20
S'n'
sS'SDSSSNN1111111111111111111111111111111111111111111111111111111111111111111111111111111111111111111111111111'
p21
S'q'
sS'SUNCNNN1011111111011111111100111111111111011111111011111111111111111111111111111111111111111111111111111111'
p22
S'a'
sS'SUSBNNN1011111111011111111100111111111111011111111011111111111111111111111111111111111111111111111111111111'
p23
S'a'
sS'SUNBNNN1111111111011111111111111111111111011111111011111111111111111111111111111111111111111111111111111111'
p24
S's'
sS'SUNCNNS1111101111111111111111111111111111011111111011111101111111111111111111111111111111111111111111111111'
p25
S'o'
sS'SDSSNNN1111111111111111111111111111111111111111111111111111111111111111111111111111111111111111111111111111'
p26
S'q'
sS'SUSCNNN1111011111111111111111111111111111111111011111111101111111111111111111111111111111111111111111111111'
p27
S't'
sS'SUNCNNN1111111101111111111111111111111111011111111011111111111110111111111111111110111101111111111111111111'
p28
S'm'
sS'SUSBNNN1001101111011111111100111111110101011111111011111101100111111111111111111111111111111111111111111111'
p29
S'a'
sS'SUNBNNN1111111111111111111111111111111111011111111011111111111111111111111111111111111111111111111111111111'
p30
S's'
sS'SUNCNNN1111111111111111111111111111111111011111111011111111111111111111111111111111111111111111111111111111'
p31
S'o'
sS'SUNSSNN1111111011111111111111111111111111111111111111111111111111111111111111011111111111111111111111111111'
p32
S'v'
sS'SUSCNNN1111111111111111111111111111111111011111111011111111111111111111111111111111111111111111111111111111'
p33
S'o'
sS'SSSSNNN1111011111111111111111111111111111111111011111111111111101111111101111111111111111111111111111111111'
p34
S'g'
sS'SUSBNNN1011111111011111111101111111111111011111111011111111101110111111111111111110011111111111111111111111'
p35
S'a'
sS'SUSCNNS1111011111111111111111111111111111111111011111111101111111111111111111111111111111111111111111111111'
p36
S't'
sS'SUNCSSS1101111111111111111101111111111111111111111111111111111111111111111111111111111111111111111111111111'
p37
S'f'
sS'SUSBNNN1011111111011111111100111111111101011111111011111111100111111111111111111111111111111111111111111111'
p38
S'a'
sS'SUSBNNS1111111111011111111111111111111111011111111011111111111111111111111111111111111111111111111111111111'
p39
S'i'
sS'SUNSSNN1111111111011111111101111111110111011111011011111101111111110111111111011111111101111111110111111111'
p40
S'u'
sS'SSNSSNN1111110111111111111111111111111111011111111011111111111111110111111111011111111111111111111111111111'
p41
S'h'
sS'SUSSNNN1111111111111111111111111111111111111111111111111111111111111111111111111111111111111111111111111111'
p42
S'l'
sS'SUNCNNN1111110111111111111111111111111111011111111011111111111111110111111111011111111111111111111111111111'
p43
S'n'
sS'SUSBNNS1111111111111111111111111111111111011111111011111111111111111111111111111111111111111111111111111111'
p44
S'y'
sS'SSSSSSN1111110111111111111111111111111111011111111011111111111111110111111111111111111111111111111111111111'
p45
S'h'
sS'SUSSSSS1111111111111111111111111111111111111111111111111111111111111111111111111111111111111111111111111111'
p46
S'w'
sS'SSSSNNN1111011111111111111111111111111111111111011111111111111111111111111111111111111111111111111111111111'
p47
S'g'
sS'SUSCNNS1011111111011111111101111111111111011111111011111111111111111111111111111111111111111111111111111111'
p48
S'i'
sS'SUNCNNN1111101011111111111111111111111111011111111011111101111110111111111111011110111111111111111111111111'
p49
S'o'
sS'SUNCNNN1111111111111111111111111111111111111111111111111111111101111111101111111111111111111111111111111111'
p50
S'x'
sS'SUNBNNS1011111111011111111100111111111111011111111011111111111111111111111111111111111111111111111111111111'
p51
S'i'
sS'SUNBNNN1111111011111111111111111111111111011111111011111111111111111111111111011111111111111111111111111111'
p52
S'e'
sS'SSNSSNN1111110111111111111111111111111111011111111011111111111111110111111111111111111111111111111111111111'
p53
S'h'
sS'SUSBNNN1111111111011111111111111111111111011111111011111111111111111111111111111111111111111111111111111111'
p54
S'a'
sS'SUNCNNS1011111111011111111100111111111111011111111011111111111111111111111111111111111111111111111111111111'
p55
S'i'
sS'SSSSSNN1111011111111111111111111111111111111111011111111111111111111111111111111111111111111111111111111111'
p56
S'g'
sS'SUNCNNN1111111111111111111111111110111111011111111011111111111111111111111111110111111111111111111111111111'
p57
S'e'
sS'SUNCNNS1011111111011111111111111111111111011111111011111111111111111111111111111111111111111111111111111111'
p58
S'i'
sS'SUNBNNN1111101011111111111111111111111111111111111111111111111111111111111111011110111111111111111111111111'
p59
S'r'
sS'SUSBNNN1011111111011111111101111111111111011111111011111111111110111111111111111110111111111111111111111111'
p60
S'a'
sS'SUNBNNN1001111111011111111100111111110001011111111011111111111111111111111111111111111111111111111111111111'
p61
S'a'
sS'SUNSSNN1111110111111111111111111111111111011111111011111111111111110111111111111111111111111111111111111111'
p62
S'n'
sS'SUNCNNS1111101011111111111111111111111111011111111011111101111110111111111111011110111111111111111111111111'
p63
S'o'
sS'SUNBNNS1011111111011111111111111111111111011111111011111111111111111111111111111111111111111111111111111111'
p64
S'i'
sS'SUSSSNN1111011111111111111111111111111111111111011111111111111111111111111111111111111111111111111111111111'
p65
S'k'
sS'SUSSSNN1111110111111111111111111111111111011111111011111111111111110111111111111111111111111111111111111111'
p66
S'n'
sS'SUSBNNS1011111111011111111111111111111111011111111011111111111111111111111111111111111111111111111111111111'
p67
S'i'
sS'SUNCNNN1111111101111111111111111111111111011111111011111111111111111111111111111111111101111111111111111111'
p68
S'm'
sS'SUSCNNS1111111111011111111111111111111111011111111011111111111111111111111111111111111111111111111111111111'
p69
S'i'
sS'SDSSSNN1111011111111111111111111111111111111111011111111111111111111111111111111111111111111111111111111111'
p70
S'p'
sS'SUSCNNS1111111111011111111111111111111111011111111011111111111110111111111111111110111111111111111111111111'
p71
S'i'
sS'SUNCNNS1111011111111111111111111111111111111111011111111101111111111111111111111111111111111111111111111111'
p72
S't'
sS'SUNCNNN1111011111111111111111111111111111111111011111111101111111111111111111111111111111111111111111111111'
p73
S't'
sS'SUNCNNN1111011111111111111111111111111101111111011011111101111111111111111111111111111111111111111111111111'
p74
S't'
sS'SUNSNNN1111111011111111111111111111111111111111111111111111111111111111111111011111111111111111111111111111'
p75
S'd'
sS'SUSBNNN1111111111011111111111111111111101011111111011111111101110111111111111111110011111111111111111111111'
p76
S'a'
sS'SUNBSNN1111111011111111111111111111111111111111111111111111111111111111111111011111111111111111111111111111'
p77
S'r'
sS'SUNCNNS1111111101111111111111111111111111011111111011111111111110111111111111111110111101111111110111111111'
p78
S'm'
sS'SUNCNNS1111111101111111111111111111111111011111111011111111111111111111111111111111111101111110110111111111'
p79
S'm'
sS'SUSCNNS1111110111111111111111111111111111011111111011111111111111110111111111011111111111111111111111111111'
p80
S'n'
sS'SUSBNNN1011111111011111111111111111111111011111111011111111111111111111111111111111111111111111111111111111'
p81
S'a'
sS'SUSBNNN1111111111011111111111111111111111011111111011111111101110111111111111111110011111111111111111111111'
p82
S'a'
sS'SUNCNNS1011111111011111111101111111111111011111111011111111111111111111111111111111111111111111111111111111'
p83
S'i'
sS'SUSCNNN1011111111011111111101111111111111011111111011111111111111111111111111111111111111111111111111111111'
p84
S'a'
sS'SUSCNNS1111111011111111111111111111111111011111111011111111111111111111111111011111111111111111111111111111'
p85
S'o'
sS'SDSSNNN1111111111111111111111111111111111011111111011111111111111111111111111111111111111111111111111111111'
p86
S'q'
sS'SUSSSNN1111110111111111111111111111111111011111111011111111111111110111111111011111111111111111111111111111'
p87
S'n'
sS'SUNBNNN1111111110111111111111111111111111011111111011111111111111111111111111111111111111111111110111111111'
p88
S'e'
sS'SUNSSSS1111111111111111111111111111111111011111111011111111111111111111111111111111111111111111111111111111'
p89
S'b'
sS'SUSCNNS1111111110111111111111111111111111011111111011111111111110111111111111111110111111111111110111111111'
p90
S'o'
sS'SUNCNNS1111111111111111111111111111111111011111111011111111111111111111111111111111111111111111111111111111'
p91
S'c'
sS'SUNCSNS1101111111111111111101111111111111111111111111111111111111111111111111111111111111111111111111111111'
p92
S'f'
sS'SUNSSNS1111111011111111111111111111111111111111111111111111111111111111111111011111111111111111111111111111'
p93
S'v'
sS'SUNSSNN1111110111111111111111111111111111011111111011111111111111110111111111011111111111111111111111111111'
p94
S'n'
sS'SUSCNNS1011111111011111111111111111111111011111111011111111111111111111111111111111111111111111111111111111'
p95
S'i'
sS'SUSBNNS1111111111011111111101111111111111011111111011111111111111111111111111111111111111111111111111111111'
p96
S'i'
sS'SUNCNNN1111110111111111111111111111111111011111111011111111111111110111111111111111111111111111111111111111'
p97
S'n'
sS'SUSCNNN1011111111011111111101111111111111011111111011111111101110111111111111111110111111111111111111111111'
p98
S'a'
sS'SUNBNNS1011111111011111111100111111111101011111111011111111111111111111111111111111111111111111111111111111'
p99
S'i'
sS'SUSCNNN1111101111111111111111111111111111011111111011111101111111111111111111111111111111111111111111111111'
p100
S'o'
sS'SUNSSNN1111111111111111111111111111111111011111111011111111111111111111111111111111111111111111111111111111'
p101
S'u'
sS'SUSCNNN1111110111111111111111111111111111011111111011111111111111110111111111011111111111111111111111111111'
p102
S'n'
sS'SUSBNNN1011111111011111111100111111111111011111111011111111101110111111111111111110011111111111111111111111'
p103
S'a'
sS'SUNSSSS1111111111111111111111111111111111111111111111111111111111111111111111111111111111111111111111111111'
p104
S'b'
sS'SUNBNNN1011111111011111111100111111111111011111111011111111101110111111111111111110011111111111111111111111'
p105
S'a'
sS'SUSCNNN1111111111011111111111111111111111011111111011111111111110111111111111111110111111111111111111111111'
p106
S'a'
sS'SUNCNNN1111011111111111111111111111111111111111011111111111111111111111111111111111111111111111111111111111'
p107
S't'
sS'SUSBNNS1011111111011111111100111111111111011111111011111111111111111111111111111111111111111111111111111111'
p108
S'i'
sS'SUNSSNS1111111011011111101101111110110111011011011011101101111110110111111011011111111101111110110111111011'
p109
S'u'
sS'SUSCNNN1011111111011111111101111111111111011111111011111111111110111111111111111110111111111111111111111111'
p110
S'a'
sS'SUSCNNN1111110111111111111111111111111111011111111011111111111111110111111111111111111111111111111111111111'
p111
S'n'
sS'SUSCNNN1011111111011111111100111111111111011111111011111111111111111111111111111111111111111111111111111111'
p112
S'a'
sS'SUNSNNN1111101011111111111111111111111111111111111111111101111110111111111111011110111111111111111111111111'
p113
S'd'
sS'SUSBNNN1111111111011111111101111111111101011111111011111101100111111111111111111111111111111111111111111111'
p114
S'a'
sS'SUNCNNS1111111101111111111111111111111111011111111011111111111111111111111111111111111101111111111111111111'
p115
S'm'
sS'SUNCNNS1111111111011111111111111111111111011111111011111111111111111111111111111111111111111111111111111111'
p116
S'i'
sS'SUNBNNN1111111111011111111101111111110111011111011011111101111111110111111111011111111101111111110111111111'
p117
S's'
sS'SUSBNNN1111111111111111111111111111111111011111111011111111111111111111111111111111111111111111111111111111'
p118
S'o'
s.