ccollections
defaultdict
p1
(c__builtin__
str
p2
tRp3
S'SUSBNNN1011111111011111111100111111111101011111111011111111111111111111111111111111111111111111111111111111'
p4
S'a'
sS'SUNCNNN1111011111111111111111111111111111111111011011111111111111111111111111111111111111111111111111111111'
p5
S't'
sS'SUNBNNN1011111111011111111100111111111111011111111011111111111111111111111111111111111111111111111111111111'
p6
S'a'
sS'SUNCNNN1111101111111111111111111111111111011111111011111101111111111111111111111111111111111111111111111111'
p7
S'o'
sS'SUSSNNN1111111111111111111111111111111111111111111111111111111111111111111111111111111111111111111111111111'
p8
S'l'
sS'SUNSSNN1111110111111111111111111111111111011111111011111111111111110111111111111111111111111111111111111111'
p9
S'n'
sS'SUSBNNS1011111111011111111100111111111101011111111011111111111111111111111111111111111111111111111111111111'
p10
S'i'
sS'SUNCNNN1111110111111111111111111111111111011111111011111111111111110111101111111111111111111111111111111111'
p11
S'n'
sS'SUSSSNN1111011111111111111111111111111111111111011111111111111111111111111111111111111111111111111111111111'
p12
S'k'
sS'SUNBNNS1011111111011111111100111111111101011111111011111111111111111111111111111111111111111111111111111111'
p13
S'i'
sS'SUSCNNN1111101111111111111111111111111111011111111011111101111111111111111111111111111111111111111111111111'
p14
S'o'
sS'SUNCNNN1111111111011111111111111111111111011111111011111111111111111111111111111111111111111111111111111111'
p15
S'o'
sS'SUNCNNN1111011111111111111111111111111101111111011011111111111111111111111111111111111111111111111111111111'
p16
S't'
sS'SUNCNNS1111011111111111111111111111111111111111011111111101111111111111111111111111111111111111111111111111'
p17
S't'
sS'SUNCNNN1111011111111111111111111111111111111111011111111101111111111111111111111111111111111111111111111111'
p18
S't'
sS'SUNCNNN1111011111111111111111111111111111111111011111111111111111111111111111111111111111111111111111111111'
p19
S't'
sS'SUSBNNS1011111111011111111100111111111111011111111011111111111111111111111111111111111111111111111111111111'
p20
S'i'
sS'SUSCNNS1111111111111111111111111111111111011111111011111111111111111111111111111111111111111111111111111111'
p21
S'y'
sS'SUSCNNN1111110111111111111111111111111111011111111011111111111111110111111111111111111111111111111111111111'
p22
S'n'
sS'SUSCNNN1111011111111111111111111111111111111111011111111101111111111111111111111111111111111111111111111111'
p23
S't'
sS'SSNSSNN1111110111111111111111111111111111011111111011111111111111110111111111111111111111111111111111111111'
p24
S'h'
s.